; ModuleID = 'source-C-CXX/56/1435.c'
source_filename = "source-C-CXX/56/1435.c"
target datalayout = "e-m:e-p270:32:32-p271:32:32-p272:64:64-i64:64-f80:128-n8:16:32:64-S128"
target triple = "x86_64-pc-linux-gnu"

@.str = private unnamed_addr constant [3 x i8] c"%d\00", align 1
@.str.1 = private unnamed_addr constant [3 x i8] c"%s\00", align 1

; Function Attrs: nofree nounwind sspstrong uwtable
define dso_local void @main() local_unnamed_addr #0 {
  %1 = alloca i32, align 4
  %2 = alloca [100 x i8], align 16
  %3 = bitcast i32* %1 to i8*
  call void @llvm.lifetime.start.p0i8(i64 4, i8* nonnull %3) #5
  %4 = getelementptr inbounds [100 x i8], [100 x i8]* %2, i64 0, i64 0
  call void @llvm.lifetime.start.p0i8(i64 100, i8* nonnull %4) #5
  %5 = call i32 (i8*, ...) @__isoc99_scanf(i8* getelementptr inbounds ([3 x i8], [3 x i8]* @.str, i64 0, i64 0), i32* nonnull %1)
  %6 = load i32, i32* %1, align 4, !tbaa !5
  %7 = icmp slt i32 %6, 1
  br i1 %7, label %76, label %8

8:                                                ; preds = %0, %72
  %9 = phi i32 [ %73, %72 ], [ 1, %0 ]
  %10 = call i32 (i8*, ...) @__isoc99_scanf(i8* getelementptr inbounds ([3 x i8], [3 x i8]* @.str.1, i64 0, i64 0), i8* nonnull %4)
  %11 = call i64 @strlen(i8* noundef nonnull %4) #6
  %12 = trunc i64 %11 to i32
  %13 = shl i64 %11, 32
  %14 = add i64 %13, -4294967296
  %15 = ashr exact i64 %14, 32
  %16 = getelementptr inbounds [100 x i8], [100 x i8]* %2, i64 0, i64 %15
  %17 = load i8, i8* %16, align 1, !tbaa !9
  %18 = icmp eq i8 %17, 114
  br i1 %18, label %19, label %35

19:                                               ; preds = %8
  %20 = add i32 %12, -2
  %21 = icmp sgt i32 %20, 0
  br i1 %21, label %22, label %32

22:                                               ; preds = %19
  %23 = zext i32 %20 to i64
  br label %24

24:                                               ; preds = %22, %24
  %25 = phi i64 [ 0, %22 ], [ %30, %24 ]
  %26 = getelementptr inbounds [100 x i8], [100 x i8]* %2, i64 0, i64 %25
  %27 = load i8, i8* %26, align 1, !tbaa !9
  %28 = sext i8 %27 to i32
  %29 = call i32 @putchar(i32 %28)
  %30 = add nuw nsw i64 %25, 1
  %31 = icmp eq i64 %30, %23
  br i1 %31, label %32, label %24, !llvm.loop !10

32:                                               ; preds = %24, %19
  %33 = call i32 @putchar(i32 10)
  %34 = load i8, i8* %16, align 1, !tbaa !9
  br label %35

35:                                               ; preds = %32, %8
  %36 = phi i8 [ %34, %32 ], [ %17, %8 ]
  %37 = icmp eq i8 %36, 121
  br i1 %37, label %38, label %54

38:                                               ; preds = %35
  %39 = add i32 %12, -2
  %40 = icmp sgt i32 %39, 0
  br i1 %40, label %41, label %51

41:                                               ; preds = %38
  %42 = zext i32 %39 to i64
  br label %43

43:                                               ; preds = %41, %43
  %44 = phi i64 [ 0, %41 ], [ %49, %43 ]
  %45 = getelementptr inbounds [100 x i8], [100 x i8]* %2, i64 0, i64 %44
  %46 = load i8, i8* %45, align 1, !tbaa !9
  %47 = sext i8 %46 to i32
  %48 = call i32 @putchar(i32 %47)
  %49 = add nuw nsw i64 %44, 1
  %50 = icmp eq i64 %49, %42
  br i1 %50, label %51, label %43, !llvm.loop !12

51:                                               ; preds = %43, %38
  %52 = call i32 @putchar(i32 10)
  %53 = load i8, i8* %16, align 1, !tbaa !9
  br label %54

54:                                               ; preds = %51, %35
  %55 = phi i8 [ %53, %51 ], [ %36, %35 ]
  %56 = icmp eq i8 %55, 103
  br i1 %56, label %57, label %72

57:                                               ; preds = %54
  %58 = add i32 %12, -3
  %59 = icmp sgt i32 %58, 0
  br i1 %59, label %60, label %70

60:                                               ; preds = %57
  %61 = zext i32 %58 to i64
  br label %62

62:                                               ; preds = %60, %62
  %63 = phi i64 [ 0, %60 ], [ %68, %62 ]
  %64 = getelementptr inbounds [100 x i8], [100 x i8]* %2, i64 0, i64 %63
  %65 = load i8, i8* %64, align 1, !tbaa !9
  %66 = sext i8 %65 to i32
  %67 = call i32 @putchar(i32 %66)
  %68 = add nuw nsw i64 %63, 1
  %69 = icmp eq i64 %68, %61
  br i1 %69, label %70, label %62, !llvm.loop !13

70:                                               ; preds = %62, %57
  %71 = call i32 @putchar(i32 10)
  br label %72

72:                                               ; preds = %54, %70
  %73 = add nuw nsw i32 %9, 1
  %74 = load i32, i32* %1, align 4, !tbaa !5
  %75 = icmp slt i32 %9, %74
  br i1 %75, label %8, label %76, !llvm.loop !14

76:                                               ; preds = %72, %0
  call void @llvm.lifetime.end.p0i8(i64 100, i8* nonnull %4) #5
  call void @llvm.lifetime.end.p0i8(i64 4, i8* nonnull %3) #5
  ret void
}

; Function Attrs: argmemonly mustprogress nofree nosync nounwind willreturn
declare void @llvm.lifetime.start.p0i8(i64 immarg, i8* nocapture) #1

; Function Attrs: nofree nounwind
declare noundef i32 @__isoc99_scanf(i8* nocapture noundef readonly, ...) local_unnamed_addr #2

; Function Attrs: argmemonly mustprogress nofree nounwind readonly willreturn
declare i64 @strlen(i8* nocapture) local_unnamed_addr #3

; Function Attrs: argmemonly mustprogress nofree nosync nounwind willreturn
declare void @llvm.lifetime.end.p0i8(i64 immarg, i8* nocapture) #1

; Function Attrs: nofree nounwind
declare noundef i32 @putchar(i32 noundef) local_unnamed_addr #4


!llvm.module.flags = !{!0, !1, !2, !3}
!llvm.ident = !{!4}

!0 = !{i32 1, !"wchar_size", i32 4}
!1 = !{i32 7, !"PIC Level", i32 2}
!2 = !{i32 7, !"PIE Level", i32 2}
!3 = !{i32 7, !"uwtable", i32 1}
!4 = !{!"clang version 13.0.0"}
!5 = !{!6, !6, i64 0}
!6 = !{!"int", !7, i64 0}
!7 = !{!"omnipotent char", !8, i64 0}
!8 = !{!"Simple C/C++ TBAA"}
!9 = !{!7, !7, i64 0}
!10 = distinct !{!10, !11}
!11 = !{!"llvm.loop.mustprogress"}
!12 = distinct !{!12, !11}
!13 = distinct !{!13, !11}
!14 = distinct !{!14, !11}
